; Listing generated by Microsoft (R) Optimizing Compiler Version 19.31.31107.0 

	TITLE	C:\Users\parksangwo\Desktop\Github\msvc-asm-x86-x64-study\msvc_asm_study\msvc_asm_study\Debug\st001-01.obj
	.686P
	.XMM
	include listing.inc
	.model	flat

INCLUDELIB MSVCRTD
INCLUDELIB OLDNAMES

PUBLIC	?hi@@3PBDB					; hi
PUBLIC	??_C@_0M@LACCCNMM@hello?5world@			; `string'
msvcjmc	SEGMENT
__F32AA0BD_concurrencysal@h DB 01H
__5A3A63C4_sal@h DB 01H
__6BEC7B3D_vadefs@h DB 01H
__1BC54112_vcruntime@h DB 01H
__FF18040F_xkeycheck@h DB 01H
__3779B844_yvals_core@h DB 01H
__AD973B64_limits@h DB 01H
__62B17962_climits DB 01H
__04C75F1C_corecrt@h DB 01H
__EDB62062_vcruntime_new@h DB 01H
__5858FF13_vcruntime_new_debug@h DB 01H
__8CF369C8_crtdbg@h DB 01H
__41ABBF80_crtdefs@h DB 01H
__F1399E15_use_ansi@h DB 01H
__501EED2F_yvals@h DB 01H
__92857972_corecrt_math@h DB 01H
__A29DED85_math@h DB 01H
__494656A0_corecrt_malloc@h DB 01H
__0C5B3DCC_stddef@h DB 01H
__F1F53BCE_corecrt_search@h DB 01H
__DD5AA43A_corecrt_wstdlib@h DB 01H
__71F46169_stdlib@h DB 01H
__E65E5B90_cstdlib DB 01H
__0A37AC5C_xtr1common DB 01H
__D986D001_intrin0@inl@h DB 01H
__5886068B_intrin0@h DB 01H
__15E49872_errno@h DB 01H
__4041E9ED_vcruntime_string@h DB 01H
__184F7456_corecrt_memcpy_s@h DB 01H
__82377222_corecrt_memory@h DB 01H
__5B29309E_corecrt_wstring@h DB 01H
__F787F5CD_string@h DB 01H
__AACCF370_cstring DB 01H
__13E1155B_stdint@h DB 01H
__5B00BAED_cstdint DB 01H
__4395813D_cstddef DB 01H
__E9ECD68E_initializer_list DB 01H
__264C4909_xstddef DB 01H
__B1B1C2C4_type_traits DB 01H
__FB91846C_concepts DB 01H
__93CAE39E_isa_availability@h DB 01H
__CDB0EEF0_float@h DB 01H
__DA570BDA_cfloat DB 01H
__C44F8F6B_corecrt_stdio_config@h DB 01H
__A7F89B2B_corecrt_wstdio@h DB 01H
__B5C48800_stdio@h DB 01H
__A913C05D_cstdio DB 01H
__E387ED1C_corecrt_wconio@h DB 01H
__78D0C915_corecrt_wctype@h DB 01H
__02A4DD57_corecrt_wdirect@h DB 01H
__A056EFF3_corecrt_share@h DB 01H
__91FC0EDF_corecrt_wio@h DB 01H
__6619318A_corecrt_wprocess@h DB 01H
__18070508_corecrt_wtime@h DB 01H
__3D2AFB26_types@h DB 01H
__72103B05_stat@h DB 01H
__4BE26BFD_wchar@h DB 01H
__3398160E_cwchar DB 01H
__BCB146BE_limits DB 01H
__CF889091_bit DB 01H
__1F4B6121_compare DB 01H
__D153DE1B_utility DB 01H
__7F396DA6_xutility DB 01H
__38806D73_cmath DB 01H
__70589338_iosfwd DB 01H
__6E95DAE6_iterator DB 01H
__83BF90D8_share@h DB 01H
__4926392B___msvc_system_error_abi@hpp DB 01H
__3432B4A6_cerrno DB 01H
__E5D9469F_malloc@h DB 01H
__C78E68C1_corecrt_terminate@h DB 01H
__18EF2578_eh@h DB 01H
__50B6FA41_vcruntime_exception@h DB 01H
__89F4D116_exception DB 01H
__F32E7743_new DB 01H
__83F85DC0_xatomic@h DB 01H
__9EA37432_tuple DB 01H
__BBC6BDD8_xmemory DB 01H
__2816B9ED_xpolymorphic_allocator@h DB 01H
__CF153B44_xstring DB 01H
__00BAEB4B_stdexcept DB 01H
__74E16614_xcall_once@h DB 01H
__F88BF820_xerrc@h DB 01H
__3A7E7B2B_xatomic_wait@h DB 01H
__93FD7E51_time@h DB 01H
__FE33F17B_ctime DB 01H
__C9FD8EE7_xtimec@h DB 01H
__9077A9A6_xthreads@h DB 01H
__D7841A7C_atomic DB 01H
__CBBC7434_system_error DB 01H
__A784D2C3_vcruntime_typeinfo@h DB 01H
__0FE69EBF_typeinfo DB 01H
__001F4A30_memory DB 01H
__2C5A1D3F_xfacet DB 01H
__61AD4BC5___msvc_xlocinfo_types@hpp DB 01H
__6AECDA3E_ctype@h DB 01H
__A6D827FA_cctype DB 01H
__66B29864_locale@h DB 01H
__75F28741_clocale DB 01H
__106F7D77_xlocinfo DB 01H
__102B4F75_xlocale DB 01H
__298A0A64_xiosbase DB 01H
__021A53F7_streambuf DB 01H
__8EAC2962_xlocnum DB 01H
__0BE34D55_ios DB 01H
__033B95B1_ostream DB 01H
__60EBA08B_istream DB 01H
__1D4017B9_iostream DB 01H
__5439621F_st001-01@cpp DB 01H
msvcjmc	ENDS
;	COMDAT ??_C@_0M@LACCCNMM@hello?5world@
CONST	SEGMENT
??_C@_0M@LACCCNMM@hello?5world@ DB 'hello world', 00H	; `string'
CONST	ENDS
_DATA	SEGMENT
?hi@@3PBDB DD	FLAT:??_C@_0M@LACCCNMM@hello?5world@	; hi
_DATA	ENDS
PUBLIC	?__empty_global_delete@@YAXPAX@Z		; __empty_global_delete
PUBLIC	?__empty_global_delete@@YAXPAXI@Z		; __empty_global_delete
PUBLIC	?__empty_global_delete@@YAXPAXW4align_val_t@std@@@Z ; __empty_global_delete
PUBLIC	?__empty_global_delete@@YAXPAXIW4align_val_t@std@@@Z ; __empty_global_delete
PUBLIC	___local_stdio_printf_options
PUBLIC	__vfprintf_l
PUBLIC	_printf
PUBLIC	_main
PUBLIC	__JustMyCode_Default
PUBLIC	?_OptionsStorage@?1??__local_stdio_printf_options@@9@4_KA ; `__local_stdio_printf_options'::`2'::_OptionsStorage
EXTRN	__imp____acrt_iob_func:PROC
EXTRN	__imp____stdio_common_vfprintf:PROC
EXTRN	@__CheckForDebuggerJustMyCode@4:PROC
EXTRN	__RTC_CheckEsp:PROC
EXTRN	__RTC_InitBase:PROC
EXTRN	__RTC_Shutdown:PROC
;	COMDAT ?_OptionsStorage@?1??__local_stdio_printf_options@@9@4_KA
_BSS	SEGMENT
?_OptionsStorage@?1??__local_stdio_printf_options@@9@4_KA DQ 01H DUP (?) ; `__local_stdio_printf_options'::`2'::_OptionsStorage
_BSS	ENDS
;	COMDAT rtc$TMZ
rtc$TMZ	SEGMENT
__RTC_Shutdown.rtc$TMZ DD FLAT:__RTC_Shutdown
rtc$TMZ	ENDS
;	COMDAT rtc$IMZ
rtc$IMZ	SEGMENT
__RTC_InitBase.rtc$IMZ DD FLAT:__RTC_InitBase
rtc$IMZ	ENDS
; Function compile flags: /Odt
;	COMDAT __JustMyCode_Default
_TEXT	SEGMENT
__JustMyCode_Default PROC				; COMDAT
	push	ebp
	mov	ebp, esp
	pop	ebp
	ret	0
__JustMyCode_Default ENDP
_TEXT	ENDS
; Function compile flags: /Odtp /RTCsu /ZI
; File C:\Users\parksangwo\Desktop\Github\msvc-asm-x86-x64-study\msvc_asm_study\msvc_asm_study\st001-01.cpp
;	COMDAT _main
_TEXT	SEGMENT
_main	PROC						; COMDAT

; 6    : {

	push	ebp
	mov	ebp, esp
	sub	esp, 192				; 000000c0H
	push	ebx
	push	esi
	push	edi
	mov	edi, ebp
	xor	ecx, ecx
	mov	eax, -858993460				; ccccccccH
	rep stosd

; 7    : 	__asm
; 8    : 	{
; 9    : 		mov eax, 0

	mov	eax, 0

; 10   : 		mov ecx, dword ptr[hi]

	mov	ecx, DWORD PTR ?hi@@3PBDB		; hi

; 11   : 		push ecx

	push	ecx

; 12   : 		call printf

	call	_printf

; 13   : 		add esp, 4

	add	esp, 4

; 14   : 	}
; 15   : }

	pop	edi
	pop	esi
	pop	ebx
	add	esp, 192				; 000000c0H
	cmp	ebp, esp
	call	__RTC_CheckEsp
	mov	esp, ebp
	pop	ebp
	ret	0
_main	ENDP
_TEXT	ENDS
; Function compile flags: /Odtp /RTCsu /ZI
; File C:\Program Files (x86)\Windows Kits\10\Include\10.0.22000.0\ucrt\stdio.h
;	COMDAT _printf
_TEXT	SEGMENT
tv73 = -236						; size = 4
tv75 = -232						; size = 4
__ArgList$ = -20					; size = 4
__Result$ = -8						; size = 4
__Format$ = 8						; size = 4
_printf	PROC						; COMDAT

; 956  :     {

	push	ebp
	mov	ebp, esp
	sub	esp, 236				; 000000ecH
	push	ebx
	push	esi
	push	edi
	lea	edi, DWORD PTR [ebp-44]
	mov	ecx, 11					; 0000000bH
	mov	eax, -858993460				; ccccccccH
	rep stosd
	mov	ecx, OFFSET __B5C48800_stdio@h
	call	@__CheckForDebuggerJustMyCode@4

; 957  :         int _Result;
; 958  :         va_list _ArgList;
; 959  :         __crt_va_start(_ArgList, _Format);

	lea	eax, DWORD PTR __Format$[ebp+4]
	mov	DWORD PTR __ArgList$[ebp], eax

; 960  :         _Result = _vfprintf_l(stdout, _Format, NULL, _ArgList);

	mov	eax, DWORD PTR __Format$[ebp]
	mov	DWORD PTR tv75[ebp], eax
	mov	esi, esp
	push	1
	call	DWORD PTR __imp____acrt_iob_func
	add	esp, 4
	cmp	esi, esp
	call	__RTC_CheckEsp
	mov	DWORD PTR tv73[ebp], eax
	mov	ecx, DWORD PTR __ArgList$[ebp]
	push	ecx
	push	0
	mov	edx, DWORD PTR tv75[ebp]
	push	edx
	mov	eax, DWORD PTR tv73[ebp]
	push	eax
	call	__vfprintf_l
	add	esp, 16					; 00000010H
	mov	DWORD PTR __Result$[ebp], eax

; 961  :         __crt_va_end(_ArgList);

	mov	DWORD PTR __ArgList$[ebp], 0

; 962  :         return _Result;

	mov	eax, DWORD PTR __Result$[ebp]

; 963  :     }

	pop	edi
	pop	esi
	pop	ebx
	add	esp, 236				; 000000ecH
	cmp	ebp, esp
	call	__RTC_CheckEsp
	mov	esp, ebp
	pop	ebp
	ret	0
_printf	ENDP
_TEXT	ENDS
; Function compile flags: /Odtp /RTCsu /ZI
; File C:\Program Files (x86)\Windows Kits\10\Include\10.0.22000.0\ucrt\stdio.h
;	COMDAT __vfprintf_l
_TEXT	SEGMENT
__Stream$ = 8						; size = 4
__Format$ = 12						; size = 4
__Locale$ = 16						; size = 4
__ArgList$ = 20						; size = 4
__vfprintf_l PROC					; COMDAT

; 644  :     {

	push	ebp
	mov	ebp, esp
	sub	esp, 192				; 000000c0H
	push	ebx
	push	esi
	push	edi
	mov	edi, ebp
	xor	ecx, ecx
	mov	eax, -858993460				; ccccccccH
	rep stosd
	mov	ecx, OFFSET __B5C48800_stdio@h
	call	@__CheckForDebuggerJustMyCode@4

; 645  :         return __stdio_common_vfprintf(_CRT_INTERNAL_LOCAL_PRINTF_OPTIONS, _Stream, _Format, _Locale, _ArgList);

	mov	esi, esp
	mov	eax, DWORD PTR __ArgList$[ebp]
	push	eax
	mov	ecx, DWORD PTR __Locale$[ebp]
	push	ecx
	mov	edx, DWORD PTR __Format$[ebp]
	push	edx
	mov	eax, DWORD PTR __Stream$[ebp]
	push	eax
	call	___local_stdio_printf_options
	mov	ecx, DWORD PTR [eax+4]
	push	ecx
	mov	edx, DWORD PTR [eax]
	push	edx
	call	DWORD PTR __imp____stdio_common_vfprintf
	add	esp, 24					; 00000018H
	cmp	esi, esp
	call	__RTC_CheckEsp

; 646  :     }

	pop	edi
	pop	esi
	pop	ebx
	add	esp, 192				; 000000c0H
	cmp	ebp, esp
	call	__RTC_CheckEsp
	mov	esp, ebp
	pop	ebp
	ret	0
__vfprintf_l ENDP
_TEXT	ENDS
; Function compile flags: /Odtp /RTCsu /ZI
; File C:\Program Files (x86)\Windows Kits\10\Include\10.0.22000.0\ucrt\corecrt_stdio_config.h
;	COMDAT ___local_stdio_printf_options
_TEXT	SEGMENT
___local_stdio_printf_options PROC			; COMDAT

; 90   :     {

	push	ebp
	mov	ebp, esp
	sub	esp, 192				; 000000c0H
	push	ebx
	push	esi
	push	edi
	mov	edi, ebp
	xor	ecx, ecx
	mov	eax, -858993460				; ccccccccH
	rep stosd
	mov	ecx, OFFSET __C44F8F6B_corecrt_stdio_config@h
	call	@__CheckForDebuggerJustMyCode@4

; 91   :         static unsigned __int64 _OptionsStorage;
; 92   :         return &_OptionsStorage;

	mov	eax, OFFSET ?_OptionsStorage@?1??__local_stdio_printf_options@@9@4_KA ; `__local_stdio_printf_options'::`2'::_OptionsStorage

; 93   :     }

	pop	edi
	pop	esi
	pop	ebx
	add	esp, 192				; 000000c0H
	cmp	ebp, esp
	call	__RTC_CheckEsp
	mov	esp, ebp
	pop	ebp
	ret	0
___local_stdio_printf_options ENDP
_TEXT	ENDS
; Function compile flags: /Odtp /RTCsu /ZI
; File C:\Users\parksangwo\Desktop\Github\msvc-asm-x86-x64-study\msvc_asm_study\msvc_asm_study\st001-01.cpp
;	COMDAT ?__empty_global_delete@@YAXPAXIW4align_val_t@std@@@Z
_TEXT	SEGMENT
___formal$ = 8						; size = 4
___formal$ = 12						; size = 4
___formal$ = 16						; size = 4
?__empty_global_delete@@YAXPAXIW4align_val_t@std@@@Z PROC ; __empty_global_delete, COMDAT

	push	ebp
	mov	ebp, esp
	sub	esp, 192				; 000000c0H
	push	ebx
	push	esi
	push	edi
	mov	edi, ebp
	xor	ecx, ecx
	mov	eax, -858993460				; ccccccccH
	rep stosd
	mov	ecx, OFFSET __5439621F_st001-01@cpp
	call	@__CheckForDebuggerJustMyCode@4
	pop	edi
	pop	esi
	pop	ebx
	add	esp, 192				; 000000c0H
	cmp	ebp, esp
	call	__RTC_CheckEsp
	mov	esp, ebp
	pop	ebp
	ret	0
?__empty_global_delete@@YAXPAXIW4align_val_t@std@@@Z ENDP ; __empty_global_delete
_TEXT	ENDS
; Function compile flags: /Odtp /RTCsu /ZI
; File C:\Users\parksangwo\Desktop\Github\msvc-asm-x86-x64-study\msvc_asm_study\msvc_asm_study\st001-01.cpp
;	COMDAT ?__empty_global_delete@@YAXPAXW4align_val_t@std@@@Z
_TEXT	SEGMENT
___formal$ = 8						; size = 4
___formal$ = 12						; size = 4
?__empty_global_delete@@YAXPAXW4align_val_t@std@@@Z PROC ; __empty_global_delete, COMDAT

	push	ebp
	mov	ebp, esp
	sub	esp, 192				; 000000c0H
	push	ebx
	push	esi
	push	edi
	mov	edi, ebp
	xor	ecx, ecx
	mov	eax, -858993460				; ccccccccH
	rep stosd
	mov	ecx, OFFSET __5439621F_st001-01@cpp
	call	@__CheckForDebuggerJustMyCode@4
	pop	edi
	pop	esi
	pop	ebx
	add	esp, 192				; 000000c0H
	cmp	ebp, esp
	call	__RTC_CheckEsp
	mov	esp, ebp
	pop	ebp
	ret	0
?__empty_global_delete@@YAXPAXW4align_val_t@std@@@Z ENDP ; __empty_global_delete
_TEXT	ENDS
; Function compile flags: /Odtp /RTCsu /ZI
; File C:\Users\parksangwo\Desktop\Github\msvc-asm-x86-x64-study\msvc_asm_study\msvc_asm_study\st001-01.cpp
;	COMDAT ?__empty_global_delete@@YAXPAXI@Z
_TEXT	SEGMENT
___formal$ = 8						; size = 4
___formal$ = 12						; size = 4
?__empty_global_delete@@YAXPAXI@Z PROC			; __empty_global_delete, COMDAT

	push	ebp
	mov	ebp, esp
	sub	esp, 192				; 000000c0H
	push	ebx
	push	esi
	push	edi
	mov	edi, ebp
	xor	ecx, ecx
	mov	eax, -858993460				; ccccccccH
	rep stosd
	mov	ecx, OFFSET __5439621F_st001-01@cpp
	call	@__CheckForDebuggerJustMyCode@4
	pop	edi
	pop	esi
	pop	ebx
	add	esp, 192				; 000000c0H
	cmp	ebp, esp
	call	__RTC_CheckEsp
	mov	esp, ebp
	pop	ebp
	ret	0
?__empty_global_delete@@YAXPAXI@Z ENDP			; __empty_global_delete
_TEXT	ENDS
; Function compile flags: /Odtp /RTCsu /ZI
; File C:\Users\parksangwo\Desktop\Github\msvc-asm-x86-x64-study\msvc_asm_study\msvc_asm_study\st001-01.cpp
;	COMDAT ?__empty_global_delete@@YAXPAX@Z
_TEXT	SEGMENT
___formal$ = 8						; size = 4
?__empty_global_delete@@YAXPAX@Z PROC			; __empty_global_delete, COMDAT

	push	ebp
	mov	ebp, esp
	sub	esp, 192				; 000000c0H
	push	ebx
	push	esi
	push	edi
	mov	edi, ebp
	xor	ecx, ecx
	mov	eax, -858993460				; ccccccccH
	rep stosd
	mov	ecx, OFFSET __5439621F_st001-01@cpp
	call	@__CheckForDebuggerJustMyCode@4
	pop	edi
	pop	esi
	pop	ebx
	add	esp, 192				; 000000c0H
	cmp	ebp, esp
	call	__RTC_CheckEsp
	mov	esp, ebp
	pop	ebp
	ret	0
?__empty_global_delete@@YAXPAX@Z ENDP			; __empty_global_delete
_TEXT	ENDS
END
